target datalayout = "e-m:e-p270:32:32-p271:32:32-p272:64:64-i64:64-i128:128-f80:128-n8:16:32:64-S128"
target triple = "x86_64-pc-linux-gnu"

%struct._packet_info = type { ptr, ptr, i32, i32, %struct.nstime_t, %struct.nstime_t, %struct.nstime_t, i8, ptr, ptr, ptr, ptr, %struct._address, %struct._address, %struct._address, %struct._address, %struct._address, %struct._address, i32, ptr, i8, [3 x i8], %struct.anon, i32, i32, i32, i32, ptr, i8, ptr, ptr, i16, i16, i32, i32, i16, i32, i32, ptr, ptr, ptr, i8, i8, i16, i16, i16, i32, i16, i16, ptr, ptr, ptr, ptr, ptr, i32, i32 }
%struct.nstime_t = type { i64, i32 }
%struct._address = type { i32, i32, ptr, ptr }
%struct.anon = type { i8, [3 x i8] }

@hf_nfs3_cookie = internal global i32 0, align 4
@hf_nfs3_count_maxcount = internal global i32 0, align 4
@hf_nfs3_count_dircount = internal global i32 0, align 4
@hf_nfs3_verifier = internal global i32 0, align 4
@.str.2238 = private unnamed_addr constant [13 x i8] c", FH: 0x%08x\00", align 1
@.str.2249 = private unnamed_addr constant [4 x i8] c"dir\00", align 1
@.str.2325 = private unnamed_addr constant [12 x i8] c"Opaque Data\00", align 1
@.str.2349 = private unnamed_addr constant [30 x i8] c", READDIRPLUS Call FH: 0x%08x\00", align 1

; Function Attrs: null_pointer_is_valid sspstrong uwtable
define internal i32 @dissect_nfs3_cookie_verf(ptr noundef %0, i32 noundef %1, ptr noundef %2) #0 {
  %4 = alloca ptr, align 8
  %5 = alloca i32, align 4
  %6 = alloca ptr, align 8
  store ptr %0, ptr %4, align 8
  store i32 %1, ptr %5, align 4
  store ptr %2, ptr %6, align 8
  %7 = load ptr, ptr %6, align 8
  %8 = load i32, ptr @hf_nfs3_verifier, align 4
  %9 = load ptr, ptr %4, align 8
  %10 = load i32, ptr %5, align 4
  %11 = call ptr (ptr, i32, ptr, i32, i32, ptr, ptr, ...) @proto_tree_add_bytes_format_value(ptr noundef %7, i32 noundef %8, ptr noundef %9, i32 noundef %10, i32 noundef 8, ptr noundef null, ptr noundef @.str.2325)
  %12 = load i32, ptr %5, align 4
  %13 = add i32 %12, 8
  store i32 %13, ptr %5, align 4
  %14 = load i32, ptr %5, align 4
  ret i32 %14
}

; Function Attrs: null_pointer_is_valid sspstrong uwtable
define internal i32 @dissect_nfs3_readdirplus_call(ptr noundef %0, ptr noundef %1, ptr noundef %2, ptr noundef %3) #0 {
  %5 = alloca ptr, align 8
  %6 = alloca ptr, align 8
  %7 = alloca ptr, align 8
  %8 = alloca ptr, align 8
  %9 = alloca i32, align 4
  %10 = alloca i32, align 4
  store ptr %0, ptr %5, align 8
  store ptr %1, ptr %6, align 8
  store ptr %2, ptr %7, align 8
  store ptr %3, ptr %8, align 8
  call void @llvm.lifetime.start.p0(i64 4, ptr %9) #16
  store i32 0, ptr %9, align 4
  call void @llvm.lifetime.start.p0(i64 4, ptr %10) #16
  store i32 0, ptr %10, align 4
  %11 = load ptr, ptr %5, align 8
  %12 = load i32, ptr %10, align 4
  %13 = load ptr, ptr %6, align 8
  %14 = load ptr, ptr %7, align 8
  %15 = load ptr, ptr %8, align 8
  %16 = call i32 @dissect_nfs3_fh(ptr noundef %11, i32 noundef %12, ptr noundef %13, ptr noundef %14, ptr noundef @.str.2249, ptr noundef %9, ptr noundef %15)
  store i32 %16, ptr %10, align 4
  %17 = load ptr, ptr %5, align 8
  %18 = load ptr, ptr %7, align 8
  %19 = load i32, ptr @hf_nfs3_cookie, align 4
  %20 = load i32, ptr %10, align 4
  %21 = call i32 @dissect_rpc_uint64(ptr noundef %17, ptr noundef %18, i32 noundef %19, i32 noundef %20)
  store i32 %21, ptr %10, align 4
  %22 = load ptr, ptr %5, align 8
  %23 = load i32, ptr %10, align 4
  %24 = load ptr, ptr %7, align 8
  %25 = call i32 @dissect_nfs3_cookie_verf(ptr noundef %22, i32 noundef %23, ptr noundef %24)
  store i32 %25, ptr %10, align 4
  %26 = load ptr, ptr %5, align 8
  %27 = load ptr, ptr %7, align 8
  %28 = load i32, ptr @hf_nfs3_count_dircount, align 4
  %29 = load i32, ptr %10, align 4
  %30 = call i32 @dissect_rpc_uint32(ptr noundef %26, ptr noundef %27, i32 noundef %28, i32 noundef %29)
  store i32 %30, ptr %10, align 4
  %31 = load ptr, ptr %5, align 8
  %32 = load ptr, ptr %7, align 8
  %33 = load i32, ptr @hf_nfs3_count_maxcount, align 4
  %34 = load i32, ptr %10, align 4
  %35 = call i32 @dissect_rpc_uint32(ptr noundef %31, ptr noundef %32, i32 noundef %33, i32 noundef %34)
  store i32 %35, ptr %10, align 4
  %36 = load ptr, ptr %6, align 8
  %37 = getelementptr inbounds nuw %struct._packet_info, ptr %36, i32 0, i32 1
  %38 = load ptr, ptr %37, align 8
  %39 = load i32, ptr %9, align 4
  call void (ptr, i32, ptr, ...) @col_append_fstr(ptr noundef %38, i32 noundef 25, ptr noundef @.str.2238, i32 noundef %39)
  %40 = load ptr, ptr %7, align 8
  %41 = load i32, ptr %9, align 4
  call void (ptr, ptr, ...) @proto_item_append_text(ptr noundef %40, ptr noundef @.str.2349, i32 noundef %41)
  %42 = load i32, ptr %10, align 4
  call void @llvm.lifetime.end.p0(i64 4, ptr %10) #16
  call void @llvm.lifetime.end.p0(i64 4, ptr %9) #16
  ret i32 %42
}