; Function Attrs: null_pointer_is_valid sspstrong uwtable
define internal i32 @dissect_nfs3_readdirplus_call(ptr noundef %0, ptr noundef %1, ptr noundef %2, ptr noundef readonly captures(none) %3) #0 {
  %5 = alloca i32, align 4
  call void @llvm.lifetime.start.p0(i64 4, ptr nonnull %5) #22
  store i32 0, ptr %5, align 4
  %6 = call i32 @dissect_nfs3_fh(ptr noundef %0, i32 noundef 0, ptr noundef %1, ptr noundef %2, ptr noundef nonnull @.str.2249, ptr noundef nonnull %5, ptr noundef %3)
  %7 = load i32, ptr @hf_nfs3_cookie, align 4
  %8 = call i32 @dissect_rpc_uint64(ptr noundef %0, ptr noundef %2, i32 noundef %7, i32 noundef %6)
  %9 = load i32, ptr @hf_nfs3_verifier, align 4
  %10 = call ptr (ptr, i32, ptr, i32, i32, ptr, ptr, ...) @proto_tree_add_bytes_format_value(ptr noundef %2, i32 noundef %9, ptr noundef %0, i32 noundef %8, i32 noundef 8, ptr noundef null, ptr noundef nonnull @.str.2325)
  %11 = add i32 %8, 8
  %12 = load i32, ptr @hf_nfs3_count_dircount, align 4
  %13 = call i32 @dissect_rpc_uint32(ptr noundef %0, ptr noundef %2, i32 noundef %12, i32 noundef %11)
  %14 = load i32, ptr @hf_nfs3_count_maxcount, align 4
  %15 = call i32 @dissect_rpc_uint32(ptr noundef %0, ptr noundef %2, i32 noundef %14, i32 noundef %13)
  %16 = getelementptr inbounds nuw i8, ptr %1, i64 8
  %17 = load ptr, ptr %16, align 8
  %18 = load i32, ptr %5, align 4
  call void (ptr, i32, ptr, ...) @col_append_fstr(ptr noundef %17, i32 noundef 25, ptr noundef nonnull @.str.2238, i32 noundef %18)
  %19 = load i32, ptr %5, align 4
  call void (ptr, ptr, ...) @proto_item_append_text(ptr noundef %2, ptr noundef nonnull @.str.2349, i32 noundef %19)
  call void @llvm.lifetime.end.p0(i64 4, ptr nonnull %5) #22
  ret i32 %15
}